target datalayout = "e-m:e-p270:32:32-p271:32:32-p272:64:64-i64:64-i128:128-f80:128-n8:16:32:64-S128"
target triple = "x86_64-pc-linux-gnu"

@sane_ctype = external constant [256 x i8], align 16

; Function Attrs: inlinehint nounwind uwtable
define internal i32 @sane_case(i32 noundef %0, i32 noundef %1) #1 {
  %3 = alloca i32, align 4
  %4 = alloca i32, align 4
  store i32 %0, ptr %3, align 4, !tbaa !10
  store i32 %1, ptr %4, align 4, !tbaa !10
  %5 = load i32, ptr %3, align 4, !tbaa !10
  %6 = trunc i32 %5 to i8
  %7 = zext i8 %6 to i64
  %8 = getelementptr inbounds nuw [256 x i8], ptr @sane_ctype, i64 0, i64 %7
  %9 = load i8, ptr %8, align 1, !tbaa !9
  %10 = zext i8 %9 to i32
  %11 = and i32 %10, 4
  %12 = icmp ne i32 %11, 0
  br i1 %12, label %13, label %18

13:                                               ; preds = %2
  %14 = load i32, ptr %3, align 4, !tbaa !10
  %15 = and i32 %14, -33
  %16 = load i32, ptr %4, align 4, !tbaa !10
  %17 = or i32 %15, %16
  store i32 %17, ptr %3, align 4, !tbaa !10
  br label %18

18:                                               ; preds = %13, %2
  %19 = load i32, ptr %3, align 4, !tbaa !10
  ret i32 %19
}

; Function Attrs: nounwind uwtable
define dso_local i32 @istarts_with(ptr noundef %0, ptr noundef %1) #0 {
  %3 = alloca i32, align 4
  %4 = alloca ptr, align 8
  %5 = alloca ptr, align 8
  store ptr %0, ptr %4, align 8, !tbaa !4
  store ptr %1, ptr %5, align 8, !tbaa !4
  br label %6

6:                                                ; preds = %24, %2
  %7 = load ptr, ptr %5, align 8, !tbaa !4
  %8 = load i8, ptr %7, align 1, !tbaa !9
  %9 = icmp ne i8 %8, 0
  br i1 %9, label %11, label %10

10:                                               ; preds = %6
  store i32 1, ptr %3, align 4
  br label %29

11:                                               ; preds = %6
  %12 = load ptr, ptr %4, align 8, !tbaa !4
  %13 = load i8, ptr %12, align 1, !tbaa !9
  %14 = zext i8 %13 to i32
  %15 = call i32 @sane_case(i32 noundef %14, i32 noundef 32)
  %16 = load ptr, ptr %5, align 8, !tbaa !4
  %17 = load i8, ptr %16, align 1, !tbaa !9
  %18 = zext i8 %17 to i32
  %19 = call i32 @sane_case(i32 noundef %18, i32 noundef 32)
  %20 = icmp ne i32 %15, %19
  br i1 %20, label %21, label %22

21:                                               ; preds = %11
  store i32 0, ptr %3, align 4
  br label %29

22:                                               ; preds = %11
  br label %23

23:                                               ; preds = %22
  br label %24

24:                                               ; preds = %23
  %25 = load ptr, ptr %4, align 8, !tbaa !4
  %26 = getelementptr inbounds nuw i8, ptr %25, i32 1
  store ptr %26, ptr %4, align 8, !tbaa !4
  %27 = load ptr, ptr %5, align 8, !tbaa !4
  %28 = getelementptr inbounds nuw i8, ptr %27, i32 1
  store ptr %28, ptr %5, align 8, !tbaa !4
  br label %6

29:                                               ; preds = %21, %10
  %30 = load i32, ptr %3, align 4
  ret i32 %30
}