; Function Attrs: nofree norecurse nosync nounwind memory(argmem: read) uwtable
define dso_local range(i32 0, 2) i32 @istarts_with(ptr noundef readonly captures(none) %0, ptr noundef readonly captures(none) %1) local_unnamed_addr #0 {
  %3 = load i8, ptr %1, align 1, !tbaa !4
  %.not12 = icmp eq i8 %3, 0
  br i1 %.not12, label %._crit_edge, label %.lr.ph

.lr.ph:                                           ; preds = %2, %16
  %4 = phi i8 [ %19, %16 ], [ %3, %2 ]
  %.014 = phi ptr [ %18, %16 ], [ %1, %2 ]
  %.0513 = phi ptr [ %17, %16 ], [ %0, %2 ]
  %5 = load i8, ptr %.0513, align 1, !tbaa !4
  %6 = zext i8 %5 to i64
  %7 = getelementptr inbounds nuw [256 x i8], ptr @sane_ctype, i64 0, i64 %6
  %8 = load i8, ptr %7, align 1, !tbaa !4
  %9 = shl i8 %8, 3
  %10 = and i8 %9, 32
  %.0.i10 = or i8 %10, %5
  %11 = zext i8 %4 to i64
  %12 = getelementptr inbounds nuw [256 x i8], ptr @sane_ctype, i64 0, i64 %11
  %13 = load i8, ptr %12, align 1, !tbaa !4
  %14 = shl i8 %13, 3
  %15 = and i8 %14, 32
  %.0.i911 = or i8 %15, %4
  %.not7 = icmp eq i8 %.0.i10, %.0.i911
  br i1 %.not7, label %16, label %._crit_edge

16:                                               ; preds = %.lr.ph
  %17 = getelementptr inbounds nuw i8, ptr %.0513, i64 1
  %18 = getelementptr inbounds nuw i8, ptr %.014, i64 1
  %19 = load i8, ptr %18, align 1, !tbaa !4
  %.not = icmp eq i8 %19, 0
  br i1 %.not, label %._crit_edge, label %.lr.ph

._crit_edge:                                      ; preds = %16, %.lr.ph, %2
  %.06 = phi i32 [ 1, %2 ], [ 0, %.lr.ph ], [ 1, %16 ]
  ret i32 %.06
}